; Function Attrs: nofree norecurse nosync nounwind memory(argmem: readwrite) uwtable
define internal void @SDL_ConvertQuadTo41(ptr noundef writeonly captures(none) %0, ptr noundef readonly captures(none) %1, i32 noundef %2) #5 {
  %.not19 = icmp eq i32 %2, 0
  br i1 %.not19, label %._crit_edge, label %.lr.ph.preheader

.lr.ph.preheader:                                 ; preds = %3
  %4 = add nsw i32 %2, -1
  %5 = mul nsw i32 %4, 5
  %6 = sext i32 %5 to i64
  %7 = getelementptr inbounds float, ptr %0, i64 %6
  %8 = shl nsw i32 %4, 2
  %9 = sext i32 %8 to i64
  %10 = getelementptr inbounds float, ptr %1, i64 %9
  br label %.lr.ph

.lr.ph:                                           ; preds = %.lr.ph.preheader, %.lr.ph
  %.022 = phi i32 [ %22, %.lr.ph ], [ %2, %.lr.ph.preheader ]
  %.01721 = phi ptr [ %24, %.lr.ph ], [ %7, %.lr.ph.preheader ]
  %.01820 = phi ptr [ %23, %.lr.ph ], [ %10, %.lr.ph.preheader ]
  %11 = getelementptr inbounds nuw i8, ptr %.01820, i64 12
  %12 = load float, ptr %11, align 4
  %13 = getelementptr inbounds nuw i8, ptr %.01721, i64 16
  store float %12, ptr %13, align 4
  %14 = getelementptr inbounds nuw i8, ptr %.01820, i64 8
  %15 = load float, ptr %14, align 4
  %16 = getelementptr inbounds nuw i8, ptr %.01721, i64 12
  store float %15, ptr %16, align 4
  %17 = getelementptr inbounds nuw i8, ptr %.01721, i64 8
  store float 0.000000e+00, ptr %17, align 4
  %18 = getelementptr inbounds nuw i8, ptr %.01820, i64 4
  %19 = load float, ptr %18, align 4
  %20 = getelementptr inbounds nuw i8, ptr %.01721, i64 4
  store float %19, ptr %20, align 4
  %21 = load float, ptr %.01820, align 4
  store float %21, ptr %.01721, align 4
  %22 = add nsw i32 %.022, -1
  %23 = getelementptr inbounds i8, ptr %.01820, i64 -16
  %24 = getelementptr inbounds i8, ptr %.01721, i64 -20
  %.not = icmp eq i32 %22, 0
  br i1 %.not, label %._crit_edge, label %.lr.ph, !llvm.loop !74

._crit_edge:                                      ; preds = %.lr.ph, %3
  ret void
}